target datalayout = "e-m:e-p270:32:32-p271:32:32-p272:64:64-i64:64-i128:128-f80:128-n8:16:32:64-S128"
target triple = "x86_64-pc-linux-gnu"

%struct.prep_ops_t = type { ptr, ptr, ptr, ptr, ptr, ptr }
%struct.timeval = type { i64, i64 }
%struct.job_record = type { i32, ptr, ptr, ptr, ptr, i16, i32, i32, i32, ptr, i32, ptr, ptr, i16, ptr, double, i64, ptr, ptr, ptr, ptr, ptr, ptr, i32, ptr, i32, i64, i64, i32, i32, ptr, i16, i64, i64, i8, i32, ptr, ptr, ptr, ptr, ptr, ptr, ptr, ptr, i32, ptr, ptr, i32, ptr, i32, ptr, i32, ptr, i32, ptr, ptr, ptr, ptr, ptr, ptr, i32, i16, i64, ptr, ptr, ptr, ptr, %struct.acct_policy_limit_set_t, i16, ptr, ptr, ptr, ptr, ptr, i32, ptr, ptr, ptr, ptr, ptr, i32, i32, ptr, ptr, ptr, i16, ptr, ptr, i8, ptr, ptr, i64, i64, i8, i32, i32, i8, i32, ptr, i32, i64, i32, ptr, ptr, ptr, i8, i16, i64, i32, ptr, ptr, ptr, ptr, ptr, i16, i32, ptr, ptr, ptr, ptr, i32, ptr, i32, i16, i64, ptr, i32, i32, ptr, i64, ptr, ptr, i64, i32, i32, i64, i32, i32, ptr, ptr, ptr, ptr, ptr, ptr, ptr, ptr, ptr, ptr, ptr, ptr, i32, ptr, i16, i16, i16, i16, ptr, i32, i32, i8, i64 }
%struct.acct_policy_limit_set_t = type { i16, i16, ptr }

@g_context_cnt = internal global i32 -1, align 4
@ops = internal global ptr null, align 8
@.str.7 = private unnamed_addr constant [32 x i8] c"%s: pthread_rwlock_unlock(): %m\00", align 1
@.str.8 = private unnamed_addr constant [32 x i8] c"%s: pthread_rwlock_rdlock(): %m\00", align 1
@__func__.prep_g_epilog_slurmctld = private unnamed_addr constant [24 x i8] c"prep_g_epilog_slurmctld\00", align 1
@g_context_lock = internal global { { i32, i32, i32, i32, i32, i32, i32, i32, i8, [7 x i8], i64, i32, [4 x i8] } } zeroinitializer, align 8

; Function Attrs: nounwind uwtable
define dso_local void @prep_g_epilog_slurmctld(ptr noundef %0) #0 {
  %2 = alloca ptr, align 8
  %3 = alloca %struct.timeval, align 8
  %4 = alloca %struct.timeval, align 8
  %5 = alloca [20 x i8], align 16
  %6 = alloca i64, align 8
  %7 = alloca i32, align 4
  %8 = alloca i32, align 4
  %9 = alloca i32, align 4
  %10 = alloca i8, align 1
  %11 = alloca i32, align 4
  store ptr %0, ptr %2, align 8
  call void @llvm.lifetime.start.p0(i64 16, ptr %3) #7
  call void @llvm.lifetime.start.p0(i64 16, ptr %4) #7
  call void @llvm.lifetime.start.p0(i64 20, ptr %5) #7
  call void @llvm.memset.p0.i64(ptr align 16 %5, i8 0, i64 20, i1 false)
  call void @llvm.lifetime.start.p0(i64 8, ptr %6) #7
  call void @llvm.lifetime.start.p0(i64 4, ptr %7) #7
  store i32 0, ptr %7, align 4
  %12 = call i32 @gettimeofday(ptr noundef %3, ptr noundef null) #7
  br label %13

13:                                               ; preds = %1
  call void @llvm.lifetime.start.p0(i64 4, ptr %8) #7
  %14 = call i32 @pthread_rwlock_rdlock(ptr noundef @g_context_lock) #7
  store i32 %14, ptr %8, align 4
  %15 = load i32, ptr %8, align 4
  %16 = icmp ne i32 %15, 0
  br i1 %16, label %17, label %20

17:                                               ; preds = %13
  %18 = load i32, ptr %8, align 4
  %19 = call ptr @__errno_location() #8
  store i32 %18, ptr %19, align 4
  call void (ptr, ...) @fatal_abort(ptr noundef @.str.8, ptr noundef @__func__.prep_g_epilog_slurmctld) #9
  unreachable

20:                                               ; preds = %13
  call void @llvm.lifetime.end.p0(i64 4, ptr %8) #7
  br label %21

21:                                               ; preds = %20
  br label %22

22:                                               ; preds = %21
  call void @llvm.lifetime.start.p0(i64 4, ptr %9) #7
  store i32 0, ptr %9, align 4
  br label %23

23:                                               ; preds = %50, %22
  %24 = load i32, ptr %9, align 4
  %25 = load i32, ptr @g_context_cnt, align 4
  %26 = icmp slt i32 %24, %25
  br i1 %26, label %27, label %30

27:                                               ; preds = %23
  %28 = load i32, ptr %7, align 4
  %29 = icmp eq i32 %28, 0
  br label %30

30:                                               ; preds = %27, %23
  %31 = phi i1 [ false, %23 ], [ %29, %27 ]
  br i1 %31, label %33, label %32

32:                                               ; preds = %30
  call void @llvm.lifetime.end.p0(i64 4, ptr %9) #7
  br label %53

33:                                               ; preds = %30
  call void @llvm.lifetime.start.p0(i64 1, ptr %10) #7
  store i8 0, ptr %10, align 1
  %34 = load ptr, ptr @ops, align 8
  %35 = load i32, ptr %9, align 4
  %36 = sext i32 %35 to i64
  %37 = getelementptr inbounds %struct.prep_ops_t, ptr %34, i64 %36
  %38 = getelementptr inbounds nuw %struct.prep_ops_t, ptr %37, i32 0, i32 4
  %39 = load ptr, ptr %38, align 8
  %40 = load ptr, ptr %2, align 8
  %41 = call i32 %39(ptr noundef %40, ptr noundef %10)
  store i32 %41, ptr %7, align 4
  %42 = load i8, ptr %10, align 1, !range !11, !noundef !12
  %43 = trunc i8 %42 to i1
  br i1 %43, label %44, label %49

44:                                               ; preds = %33
  %45 = load ptr, ptr %2, align 8
  %46 = getelementptr inbounds nuw %struct.job_record, ptr %45, i32 0, i32 94
  %47 = load i32, ptr %46, align 4
  %48 = add i32 %47, 1
  store i32 %48, ptr %46, align 4
  br label %49

49:                                               ; preds = %44, %33
  call void @llvm.lifetime.end.p0(i64 1, ptr %10) #7
  br label %50

50:                                               ; preds = %49
  %51 = load i32, ptr %9, align 4
  %52 = add nsw i32 %51, 1
  store i32 %52, ptr %9, align 4
  br label %23, !llvm.loop !19

53:                                               ; preds = %32
  %54 = load ptr, ptr %2, align 8
  %55 = getelementptr inbounds nuw %struct.job_record, ptr %54, i32 0, i32 94
  %56 = load i32, ptr %55, align 4
  %57 = icmp ne i32 %56, 0
  br i1 %57, label %58, label %61

58:                                               ; preds = %53
  %59 = load ptr, ptr %2, align 8
  %60 = getelementptr inbounds nuw %struct.job_record, ptr %59, i32 0, i32 34
  store i8 1, ptr %60, align 8
  br label %61

61:                                               ; preds = %58, %53
  br label %62

62:                                               ; preds = %61
  call void @llvm.lifetime.start.p0(i64 4, ptr %11) #7
  %63 = call i32 @pthread_rwlock_unlock(ptr noundef @g_context_lock) #7
  store i32 %63, ptr %11, align 4
  %64 = load i32, ptr %11, align 4
  %65 = icmp ne i32 %64, 0
  br i1 %65, label %66, label %69

66:                                               ; preds = %62
  %67 = load i32, ptr %11, align 4
  %68 = call ptr @__errno_location() #8
  store i32 %67, ptr %68, align 4
  call void (ptr, ...) @fatal_abort(ptr noundef @.str.7, ptr noundef @__func__.prep_g_epilog_slurmctld) #9
  unreachable

69:                                               ; preds = %62
  call void @llvm.lifetime.end.p0(i64 4, ptr %11) #7
  br label %70

70:                                               ; preds = %69
  br label %71

71:                                               ; preds = %70
  br label %72

72:                                               ; preds = %71
  %73 = call i32 @gettimeofday(ptr noundef %4, ptr noundef null) #7
  %74 = getelementptr inbounds [20 x i8], ptr %5, i64 0, i64 0
  call void @slurm_diff_tv_str(ptr noundef %3, ptr noundef %4, ptr noundef %74, i32 noundef 20, ptr noundef @__func__.prep_g_epilog_slurmctld, i64 noundef 0, ptr noundef %6)
  br label %75

75:                                               ; preds = %72
  br label %76

76:                                               ; preds = %75
  call void @llvm.lifetime.end.p0(i64 4, ptr %7) #7
  call void @llvm.lifetime.end.p0(i64 8, ptr %6) #7
  call void @llvm.lifetime.end.p0(i64 20, ptr %5) #7
  call void @llvm.lifetime.end.p0(i64 16, ptr %4) #7
  call void @llvm.lifetime.end.p0(i64 16, ptr %3) #7
  ret void
}