; Function Attrs: nounwind uwtable
define dso_local void @prep_g_epilog_slurmctld(ptr noundef %0) local_unnamed_addr #0 {
  %2 = alloca %struct.timeval, align 8
  %3 = alloca %struct.timeval, align 8
  %4 = alloca [20 x i8], align 16
  %5 = alloca i64, align 8
  %6 = alloca i8, align 1
  call void @llvm.lifetime.start.p0(i64 16, ptr nonnull %2) #9
  call void @llvm.lifetime.start.p0(i64 16, ptr nonnull %3) #9
  call void @llvm.lifetime.start.p0(i64 20, ptr nonnull %4) #9
  call void @llvm.memset.p0.i64(ptr noundef nonnull align 16 dereferenceable(20) %4, i8 0, i64 20, i1 false)
  call void @llvm.lifetime.start.p0(i64 8, ptr nonnull %5) #9
  %7 = call i32 @gettimeofday(ptr noundef nonnull %2, ptr noundef null) #9
  %8 = tail call i32 @pthread_rwlock_rdlock(ptr noundef nonnull @g_context_lock) #9
  %.not = icmp eq i32 %8, 0
  br i1 %.not, label %.preheader, label %12

.preheader:                                       ; preds = %1
  %9 = load i32, ptr @g_context_cnt, align 4
  %10 = icmp sgt i32 %9, 0
  br i1 %10, label %.lr.ph, label %._crit_edge

.lr.ph:                                           ; preds = %.preheader
  %11 = getelementptr inbounds nuw i8, ptr %0, i64 708
  br label %16

12:                                               ; preds = %1
  %13 = tail call ptr @__errno_location() #10
  store i32 %8, ptr %13, align 4
  tail call void (ptr, ...) @fatal_abort(ptr noundef nonnull @.str.8, ptr noundef nonnull @__func__.prep_g_epilog_slurmctld) #11
  unreachable

._crit_edge:                                      ; preds = %26, %.preheader
  %14 = getelementptr inbounds nuw i8, ptr %0, i64 708
  %15 = load i32, ptr %14, align 4
  %.not14 = icmp eq i32 %15, 0
  br i1 %.not14, label %34, label %32

16:                                               ; preds = %.lr.ph, %26
  %indvars.iv = phi i64 [ 0, %.lr.ph ], [ %indvars.iv.next, %26 ]
  call void @llvm.lifetime.start.p0(i64 1, ptr nonnull %6) #9
  store i8 0, ptr %6, align 1
  %17 = load ptr, ptr @ops, align 8
  %18 = getelementptr inbounds nuw %struct.prep_ops_t, ptr %17, i64 %indvars.iv, i32 4
  %19 = load ptr, ptr %18, align 8
  %20 = call i32 %19(ptr noundef %0, ptr noundef nonnull %6) #9
  %21 = load i8, ptr %6, align 1, !range !11, !noundef !12
  %22 = trunc nuw i8 %21 to i1
  br i1 %22, label %23, label %26

23:                                               ; preds = %16
  %24 = load i32, ptr %11, align 4
  %25 = add i32 %24, 1
  store i32 %25, ptr %11, align 4
  br label %26

26:                                               ; preds = %23, %16
  call void @llvm.lifetime.end.p0(i64 1, ptr nonnull %6) #9
  %indvars.iv.next = add nuw nsw i64 %indvars.iv, 1
  %27 = load i32, ptr @g_context_cnt, align 4
  %28 = sext i32 %27 to i64
  %29 = icmp slt i64 %indvars.iv.next, %28
  %30 = icmp eq i32 %20, 0
  %31 = select i1 %29, i1 %30, i1 false
  br i1 %31, label %16, label %._crit_edge, !llvm.loop !20

32:                                               ; preds = %._crit_edge
  %33 = getelementptr inbounds nuw i8, ptr %0, i64 248
  store i8 1, ptr %33, align 8
  br label %34

34:                                               ; preds = %._crit_edge, %32
  %35 = call i32 @pthread_rwlock_unlock(ptr noundef nonnull @g_context_lock) #9
  %.not15 = icmp eq i32 %35, 0
  br i1 %.not15, label %38, label %36

36:                                               ; preds = %34
  %37 = tail call ptr @__errno_location() #10
  store i32 %35, ptr %37, align 4
  call void (ptr, ...) @fatal_abort(ptr noundef nonnull @.str.7, ptr noundef nonnull @__func__.prep_g_epilog_slurmctld) #11
  unreachable

38:                                               ; preds = %34
  %39 = call i32 @gettimeofday(ptr noundef nonnull %3, ptr noundef null) #9
  call void @slurm_diff_tv_str(ptr noundef nonnull %2, ptr noundef nonnull %3, ptr noundef nonnull %4, i32 noundef 20, ptr noundef nonnull @__func__.prep_g_epilog_slurmctld, i64 noundef 0, ptr noundef nonnull %5) #9
  call void @llvm.lifetime.end.p0(i64 8, ptr nonnull %5) #9
  call void @llvm.lifetime.end.p0(i64 20, ptr nonnull %4) #9
  call void @llvm.lifetime.end.p0(i64 16, ptr nonnull %3) #9
  call void @llvm.lifetime.end.p0(i64 16, ptr nonnull %2) #9
  ret void
}